; Function Attrs: mustprogress uwtable
define void @_ZN14DecodeAsDialog38on_decodeAsTreeView_currentItemChangedERK11QModelIndexS2_(ptr nocapture noundef nonnull readonly align 8 dereferenceable(88) %0, ptr nocapture noundef nonnull readonly align 8 dereferenceable(24) %1, ptr nocapture noundef nonnull readnone align 8 dereferenceable(24) %2) local_unnamed_addr #0 align 2 {
  %4 = load i32, ptr %1, align 8
  %5 = icmp sgt i32 %4, -1
  %6 = getelementptr inbounds i8, ptr %1, i64 4
  %7 = load i32, ptr %6, align 4
  %8 = icmp sgt i32 %7, -1
  %or.cond.i = select i1 %5, i1 %8, i1 false
  %9 = getelementptr inbounds i8, ptr %1, i64 16
  %10 = load ptr, ptr %9, align 8
  %11 = icmp ne ptr %10, null
  %or.cond = select i1 %or.cond.i, i1 %11, i1 false
  %12 = getelementptr inbounds i8, ptr %0, i64 64
  %13 = load ptr, ptr %12, align 8
  %14 = getelementptr inbounds i8, ptr %13, i64 32
  %15 = load ptr, ptr %14, align 8
  tail call void @_ZN7QWidget10setEnabledEb(ptr noundef nonnull align 8 dereferenceable(40) %15, i1 noundef zeroext %or.cond)
  %16 = load ptr, ptr %12, align 8
  %17 = getelementptr inbounds i8, ptr %16, i64 40
  %18 = load ptr, ptr %17, align 8
  tail call void @_ZN7QWidget10setEnabledEb(ptr noundef nonnull align 8 dereferenceable(40) %18, i1 noundef zeroext %or.cond)
  %19 = load ptr, ptr %12, align 8
  %20 = getelementptr inbounds i8, ptr %19, i64 48
  %21 = load ptr, ptr %20, align 8
  tail call void @_ZN7QWidget10setEnabledEb(ptr noundef nonnull align 8 dereferenceable(40) %21, i1 noundef zeroext %or.cond)
  ret void
}